MPASM 5.83                       TPFINAL.ASM   6-11-2019  10:39:32         PAGE  1


LOC  OBJECT CODE     LINE SOURCE TEXT
  VALUE

                      00001 #include "p16f887.inc"
                      00001         LIST
                      00002 
                      00003 ;==========================================================================
                      00004 ; Build date : Jan 21 2019
                      00005 ;  MPASM PIC16F887 processor include
                      00006 ; 
                      00007 ;  (c) Copyright 1999-2019 Microchip Technology, All rights reserved
                      00008 ;==========================================================================
                      00009 
                      00810         LIST
                      00002 
                      00003 ; CONFIG1
                      00004 ; __config 0x3FF9
2007   20F1           00005  __CONFIG _CONFIG1, _FOSC_XT & _WDTE_OFF & _PWRTE_OFF & _MCLRE_ON & _CP_OFF & _CPD_OFF & _BOREN_OFF & _I
                            ESO_OFF & _FCMEN_OFF & _LVP_OFF
                      00006 ; CONFIG2
                      00007 ; __config 0x3FFF
2008   3FFF           00008  __CONFIG _CONFIG2, _BOR4V_BOR40V & _WRT_OFF
                      00009 
                      00010  CBLOCK 0x70
  00000070            00011  DECENA
  00000071            00012  UNIDAD
  00000072            00013  GRADOS
  00000073            00014  CELSIUS
  00000074            00015  WA
  00000075            00016  STATUSA
  00000076            00017  CONTADOR0
  00000077            00018  CONTADOR1
  00000078            00019  MUX
  00000079            00020  DLAY
  0000007A            00021  NUM_DEC
  0000007B            00022  NUM_UNI
                      00023  ENDC
                      00024  
                      00025     ORG 0x00
0000   2???           00026     GOTO INICIO
                      00027     ORG 0x04
0004   2???           00028     GOTO IRS
                      00029 
Warning[207]: Found label after column 1. (INICIO)
0005                  00030  INICIO
                      00031           ;----- CONFIGURACIÓN DE PUERTOS -----
0005   1683 1303      00032           BANKSEL TRISA
Message[302]: Register in operand not in bank 0.  Ensure that bank bits are correct.
0007   0188           00033           CLRF TRISD        ;PUERTO D COMO SALIDA
0008   3000           00034           MOVLW B'00000000' ;RC6 COMO SALIDA PARA Tx, EL RESTO SALIDAS
Message[302]: Register in operand not in bank 0.  Ensure that bank bits are correct.
0009   0087           00035           MOVWF TRISC       
000A   3001           00036           MOVLW B'00000001'
Message[302]: Register in operand not in bank 0.  Ensure that bank bits are correct.
000B   0086           00037           MOVWF TRISB ; RB0 COMO ENTRADA
Message[302]: Register in operand not in bank 0.  Ensure that bank bits are correct.
MPASM 5.83                       TPFINAL.ASM   6-11-2019  10:39:32         PAGE  2


LOC  OBJECT CODE     LINE SOURCE TEXT
  VALUE

000C   0085           00038           MOVWF TRISA ; RA0 COMO ENTRADA
                      00039           
000D   1683 1703      00040           BANKSEL ANSEL ;RA0 COMO ENTRADA ANALÓGICA
000F   3001           00041           MOVLW 0x01    ;EL RESTO DE LAS E/S COMO DIGITALES
Message[302]: Register in operand not in bank 0.  Ensure that bank bits are correct.
0010   0088           00042           MOVWF ANSEL
Message[302]: Register in operand not in bank 0.  Ensure that bank bits are correct.
0011   0189           00043           CLRF ANSELH
                      00044           
                      00045           ;----- CONFIGURACIÓN PARA TRANSMISIÓN POR PUERTO SERIE -----
0012   1683 1303      00046           BANKSEL TXSTA
Message[302]: Register in operand not in bank 0.  Ensure that bank bits are correct.
0014   1218           00047       BCF TXSTA, SYNC
                      00048       
0015   1283 1303      00049       BANKSEL RCSTA
0017   1798           00050       BSF RCSTA, SPEN      
                      00051       
0018   1683 1303      00052       BANKSEL TXSTA
001A   3024           00053       MOVLW   b'00100100'   
Message[302]: Register in operand not in bank 0.  Ensure that bank bits are correct.
001B   0098           00054       MOVWF   TXSTA      ;Tx = ON, ASÍNCRONO CON 8 BITS Y ALTA VELOCIDAD
                      00055       
001C   1683 1303      00056       BANKSEL SPBRG
001E   3019           00057       MOVLW   .25
Message[302]: Register in operand not in bank 0.  Ensure that bank bits are correct.
001F   0099           00058       MOVWF   SPBRG      ;9600 BAUDIOS CON Fosc=4MHz
                      00059           ;-----------------------------------------------------------
                      00060           
                      00061           ;----- PRE-SCALER EN 256 Y ACTIVACIÓN DEL PULL-UPS -----
0020   1683 1303      00062           BANKSEL OPTION_REG
0022   3007           00063           MOVLW B'00000111'
Message[302]: Register in operand not in bank 0.  Ensure that bank bits are correct.
0023   0081           00064           MOVWF OPTION_REG       
0024   3001           00065           MOVLW B'00000001'
Message[302]: Register in operand not in bank 0.  Ensure that bank bits are correct.
0025   0095           00066           MOVWF WPUB             
                      00067           
                      00068           ;----- TIMER 1 COMO TEMPORIZADOR CON PRE-SCALER EN 8 -----
                      00069    
                      00070       
                      00071           ;----- CONFIGURACIÓN DEL ADC  -----
                      00072           ;----- RESULTADO JUSTIFICADO A LA IZQUIERDA -----
                      00073           ;----- Vref+ = Vcc (5V), Vref- = GND(0V) -----
0026   1683 1303      00074       BANKSEL ADCON1
Message[302]: Register in operand not in bank 0.  Ensure that bank bits are correct.
0028   019F           00075       CLRF ADCON1 
                      00076       
                      00077           ;----- Fosc/32, CANAL ANALÓGICO 0 (AN0), ADC HABILITADO -----
0029   1283 1303      00078       BANKSEL ADCON0
002B   3081           00079       MOVLW B'10000001'      
002C   009F           00080       MOVWF ADCON0    
                      00081       
                      00082           ;----- ACTIVACIÓN DE INTERRUPCIONES POR TIMER 0 Y RB0 -----
MPASM 5.83                       TPFINAL.ASM   6-11-2019  10:39:32         PAGE  3


LOC  OBJECT CODE     LINE SOURCE TEXT
  VALUE

002D   1283 1303      00083           BANKSEL INTCON
002F   3070           00084           MOVLW B'01110000'
0030   008B           00085           MOVWF INTCON   
                      00086           
                      00087           ;----- CARGA DEL TIMER1 -----
                      00088 
                      00089           
                      00090           ;----- CARGA DEL TIMER 0 -----
0031   1283 1303      00091           BANKSEL TMR0
0033   30EC           00092           MOVLW .236      
0034   0081           00093           MOVWF TMR0     
                      00094           
                      00095           ;----- LIMPIA LOS PUERTOS -----
0035   0188           00096           CLRF PORTD 
0036   0187           00097           CLRF PORTC       
0037   0186           00098           CLRF PORTB
0038   0185           00099           CLRF PORTA
                      00100           
                      00101           ;----- CARGA LOS VALORES POR DEFECTO A MOSTRAR EN LOS DISPLAYS: 00°C -----
0039   303F           00102           MOVLW 0x3F
003A   00F1           00103           MOVWF UNIDAD       
003B   303F           00104           MOVLW 0x3F
003C   00F0           00105           MOVWF DECENA     
003D   3063           00106           MOVLW 0x63                
003E   00F2           00107           MOVWF GRADOS
003F   3039           00108           MOVLW 0x39
0040   00F3           00109           MOVWF CELSIUS
0041   3004           00110           MOVLW .4
0042   00F6           00111           MOVWF CONTADOR0 
0043   300A           00112           MOVLW .10
0044   00F7           00113           MOVWF CONTADOR1
0045   1283 1303      00114           BANKSEL PORTA
0047   178B           00115           BSF     INTCON,GIE
                      00116           
0048   2???           00117           GOTO $
                      00118           
0049                  00119 IRS       ;----- SALVAR CONTEXTO -----
0049   00F4           00120           MOVWF WA
004A   0E03           00121           SWAPF STATUS,W
004B   00F5           00122           MOVWF STATUSA
                      00123           
                      00124           ;----- VER BANDERAS -----
004C   188B           00125           BTFSC INTCON,INTF    
004D   2???           00126           GOTO RB0SR
004E   190B           00127           BTFSC INTCON,T0IF   
004F   2???           00128           GOTO TMR0SR
0050   180C           00129           BTFSC PIR1,TMR1IF
0051   2???           00130           GOTO TMR1SR
0052   1B0C           00131           BTFSC PIR1,ADIF
0053   2???           00132           GOTO ADSR
0054   2???           00133           GOTO SALIR
                      00134           
                      00135 ;----- INTERRUPCIÓN POR RB0 -----
MPASM 5.83                       TPFINAL.ASM   6-11-2019  10:39:32         PAGE  4


LOC  OBJECT CODE     LINE SOURCE TEXT
  VALUE

0055   108B           00136 RB0SR     BCF INTCON,INTF
                      00137           ;CALL DELAY
0056   149F           00138           BSF ADCON0,1
                      00139           ;bsf T1CON,0
0057   1283 1303      00140                   BANKSEL T1CON
0059   3031           00141       MOVLW B'00110001'
005A   0090           00142       MOVWF T1CON 
005B   1283 1303      00143                   BANKSEL TMR1L
005D   300B           00144       MOVLW 0X0B
005E   008F           00145       MOVWF TMR1H     
005F   30DC           00146       MOVLW 0xDC
0060   008E           00147       MOVWF TMR1L
0061   1683 1303      00148           banksel PIE1
Message[302]: Register in operand not in bank 0.  Ensure that bank bits are correct.
0063   170C           00149           bsf   PIE1,ADIE
Message[302]: Register in operand not in bank 0.  Ensure that bank bits are correct.
0064   140C           00150           BSF   PIE1,TMR1IE
0065   1283 1303      00151           BANKSEL PORTA
0067   2???           00152           GOTO SALIR
                      00153 
                      00154 ;----- INTERRUPCIÓN POR CONVERSOR -----
                      00155 ;----- MODIFICA EL VALOR A MOSTRAR -----
0068   130C           00156 ADSR      BCF PIR1,ADIF
                      00157           
0069   1003           00158           BCF STATUS,C
006A   1683 1303      00159           BANKSEL ADRESL
Message[302]: Register in operand not in bank 0.  Ensure that bank bits are correct.
006C   0D9E           00160           RLF ADRESL,F
006D   1283 1303      00161           BANKSEL ADRESH
006F   0D9E           00162           RLF ADRESH,F
0070   081E           00163           MOVF ADRESH,W
0071   2???           00164           CALL OBTENER_DECENA
0072   2???           00165           CALL OBTENER_UNIDAD
0073   2???           00166           GOTO SALIR
                      00167 
                      00168 ;----- OBTENER DECENA -----
0074                  00169 OBTENER_DECENA
0074   01FA           00170         CLRF    NUM_DEC
0075   300A           00171         movlw   .10
0076   029E           00172 restar  subwf   ADRESH,F
Message[305]: Using default destination of 1 (file).
0077   0AFA           00173         INCF    NUM_DEC
0078   1803           00174         btfsc   STATUS,C
0079   2???           00175         goto    restar
007A   03FA           00176         decf    NUM_DEC,F
007B   300A           00177         movlw   .10
007C   079E           00178         addwf   ADRESH,F
007D   087A           00179         movf    NUM_DEC,W
007E   2???           00180         CALL    TABLA
007F   00F0           00181         MOVWF   DECENA
0080   0008           00182         RETURN    
                      00183 
                      00184 ;----- OBTENER UNIDAD -----
MPASM 5.83                       TPFINAL.ASM   6-11-2019  10:39:32         PAGE  5


LOC  OBJECT CODE     LINE SOURCE TEXT
  VALUE

0081   01FB           00185 OBTENER_UNIDAD  CLRF    NUM_UNI
0082   3001           00186         movlw   .1
0083   029E           00187 restarU subwf   ADRESH,F
Message[305]: Using default destination of 1 (file).
0084   0AFB           00188         INCF    NUM_UNI
0085   1803           00189         btfsc   STATUS,C
0086   2???           00190         goto    restarU
0087   03FB           00191         decf    NUM_UNI,F
0088   3001           00192         movlw   .1
0089   079E           00193         addwf   ADRESH,F
008A   087B           00194         movf    NUM_UNI,W
008B   2???           00195         CALL    TABLA
008C   00F1           00196         MOVWF   UNIDAD
008D   0008           00197         RETURN
                      00198 
                      00199 ;----- INTERRUPCIÓN POR TIMER0 -----
008E   110B           00200 TMR0SR    BCF INTCON,T0IF
008F   30EC           00201           MOVLW     .236
0090   0081           00202           MOVWF     TMR0
0091   0BF6           00203           DECFSZ    CONTADOR0,F
0092   2???           00204           GOTO      MOSTRAR       
0093   2???           00205           GOTO      MOVDECENA   
                      00206               
                      00207 ;----- MUESTRA LOS VALORES EN LOS CONTADOR0S -----
0094                  00208 MOSTRAR  
0094   1103           00209           BCF       STATUS,Z
0095   0876           00210           MOVF      CONTADOR0,W     
0096   3C03           00211           SUBLW     .3
0097   00F8           00212           MOVWF     MUX
0098   1903           00213           BTFSC     STATUS,Z
0099   2???           00214           GOTO      MOVLETRA
009A   1878           00215           BTFSC     MUX,0
009B   2???           00216           GOTO      MOVGRADO
009C   18F8           00217           BTFSC     MUX,1
009D   2???           00218           GOTO      MOVUNIDAD
                      00219           
009E                  00220 MOVLETRA  
009E   0873           00221           MOVF  CELSIUS,W
009F   0088           00222           MOVWF PORTD
00A0   0187           00223           CLRF  PORTC
00A1   1587           00224           BSF   PORTC,3
00A2   2???           00225           GOTO  SALIR
00A3                  00226 MOVGRADO  
00A3   0872           00227           MOVF  GRADOS,W
00A4   0088           00228           MOVWF PORTD
00A5   0187           00229           CLRF  PORTC
00A6   1507           00230           BSF   PORTC,2  
00A7   2???           00231           GOTO  SALIR
00A8                  00232 MOVUNIDAD 
00A8   0871           00233           MOVF  UNIDAD,W
00A9   0088           00234           MOVWF PORTD
00AA   0187           00235           CLRF  PORTC
00AB   1487           00236           BSF   PORTC,1  
MPASM 5.83                       TPFINAL.ASM   6-11-2019  10:39:32         PAGE  6


LOC  OBJECT CODE     LINE SOURCE TEXT
  VALUE

00AC   2???           00237           GOTO  SALIR
00AD                  00238 MOVDECENA 
00AD   0870           00239           MOVF  DECENA,W
00AE   0088           00240           MOVWF PORTD
00AF   0187           00241           CLRF  PORTC
00B0   1407           00242           BSF   PORTC,0
00B1   3004           00243           MOVLW .4
00B2   00F6           00244           MOVWF CONTADOR0
00B3   2???           00245           GOTO  SALIR   
                      00246 
                      00247 ;----- INTERRUPCIÓN POR TIMER1 -----
00B4   100C           00248 TMR1SR    BCF PIR1,TMR1IF
00B5   300B           00249           MOVLW 0x0B
00B6   008F           00250           MOVWF TMR1H
00B7   30DC           00251           MOVLW 0xDC
00B8   008E           00252           MOVWF TMR1L
Message[305]: Using default destination of 1 (file).
00B9   0BF7           00253           DECFSZ CONTADOR1
00BA   2???           00254           GOTO SALIR
00BB   300A           00255           MOVLW .10
00BC   00F7           00256           MOVWF CONTADOR1
                      00257           ;CALL DELAY
00BD   149F           00258           BSF ADCON0,GO ;UNA VEZ ENVIADOS LOS DATOS A LA PC, HACER UNA CONVERSIÓN.
00BE   2???           00259           CALL ENVIAR
                      00260           ;SI ES 0 MANDAR EL DATO
                      00261           
                      00262 ;----- RECUPERAR CONTEXTO -----   
00BF                  00263 SALIR
00BF   0E75           00264           SWAPF STATUSA,W
00C0   0083           00265           MOVWF STATUS
00C1   0EF4           00266           SWAPF WA,F
00C2   0E74           00267           SWAPF WA,W
00C3   0009           00268           RETFIE          
                      00269 
                      00270 ;----- DELAY PARA ADQUISICION DEL DATO -----
00C4   30FA           00271 DELAY MOVLW .250
00C5   00F9           00272       MOVWF DLAY
Message[305]: Using default destination of 1 (file).
00C6   0BF9           00273           DECFSZ DLAY           ;250[uS]
00C7   2???           00274           GOTO $-1
00C8   0008           00275           RETURN
                      00276           
                      00277 ;----- TABLAS CON LOS VALORES DEL 0 AL 9 PARA LOS DISPLAYS -----
00C9   0782           00278 TABLA     ADDWF PCL,F
00CA   343F           00279           RETLW 0X3F       ;0
00CB   3406           00280           RETLW 0x06       ;1
00CC   345B           00281           RETLW 0x5B       ;2
00CD   344F           00282           RETLW 0x4F       ;3
00CE   3466           00283           RETLW 0x66       ;4
00CF   346D           00284           RETLW 0x6D       ;5
00D0   347D           00285           RETLW 0x7D       ;6
00D1   3407           00286           RETLW 0x07       ;7
00D2   347F           00287           RETLW 0x7F       ;8
MPASM 5.83                       TPFINAL.ASM   6-11-2019  10:39:32         PAGE  7


LOC  OBJECT CODE     LINE SOURCE TEXT
  VALUE

00D3   346F           00288           RETLW 0x6F       ;9
                      00289 
00D4                  00290 ENVIAR
00D4   3030           00291           MOVLW 0x30
00D5   077A           00292           ADDWF NUM_DEC,W
00D6   0099           00293           MOVWF TXREG
00D7   2???           00294           CALL  DELAY
00D8   2???           00295           CALL  DELAY
00D9   3030           00296           MOVLW 0x30
00DA   077B           00297           ADDWF NUM_UNI,W
00DB   0099           00298           MOVWF TXREG
00DC   2???           00299           CALL  DELAY
00DD   30A7           00300           MOVLW 0xA7
00DE   0099           00301           MOVWF TXREG
00DF   2???           00302           CALL DELAY
00E0   3043           00303           MOVLW 'C'
00E1   0099           00304           MOVWF TXREG
00E2   2???           00305           CALL DELAY
00E3   3009           00306           MOVLW 0x09
00E4   0099           00307           MOVWF TXREG
00E5   2???           00308           CALL  DELAY
00E6   0008           00309           RETURN
                      00310           
20F1 3FFF             00311           END
MPASM 5.83                       TPFINAL.ASM   6-11-2019  10:39:32         PAGE  8


SYMBOL TABLE
  LABEL                             VALUE 

ABDEN                             00000000
ABDOVF                            00000007
ACKDT                             00000005
ACKEN                             00000004
ACKSTAT                           00000006
ADCON0                            0000001F
ADCON1                            0000009F
ADCS0                             00000006
ADCS1                             00000007
ADDEN                             00000003
ADFM                              00000007
ADIE                              00000006
ADIF                              00000006
ADON                              00000000
ADRESH                            0000001E
ADRESL                            0000009E
ADSR                              00000068
ANS0                              00000000
ANS1                              00000001
ANS10                             00000002
ANS11                             00000003
ANS12                             00000004
ANS13                             00000005
ANS2                              00000002
ANS3                              00000003
ANS4                              00000004
ANS5                              00000005
ANS6                              00000006
ANS7                              00000007
ANS8                              00000000
ANS9                              00000001
ANSEL                             00000188
ANSELH                            00000189
BAUDCTL                           00000187
BCLIE                             00000003
BCLIF                             00000003
BF                                00000000
BRG0                              00000000
BRG1                              00000001
BRG10                             00000002
BRG11                             00000003
BRG12                             00000004
BRG13                             00000005
BRG14                             00000006
BRG15                             00000007
BRG16                             00000003
BRG2                              00000002
BRG3                              00000003
BRG4                              00000004
BRG5                              00000005
BRG6                              00000006
BRG7                              00000007
BRG8                              00000000
MPASM 5.83                       TPFINAL.ASM   6-11-2019  10:39:32         PAGE  9


SYMBOL TABLE
  LABEL                             VALUE 

BRG9                              00000001
BRGH                              00000002
C                                 00000000
C1CH0                             00000000
C1CH1                             00000001
C1IE                              00000005
C1IF                              00000005
C1OE                              00000005
C1ON                              00000007
C1OUT                             00000006
C1POL                             00000004
C1R                               00000002
C1RSEL                            00000005
C1SEN                             00000005
C2CH0                             00000000
C2CH1                             00000001
C2IE                              00000006
C2IF                              00000006
C2OE                              00000005
C2ON                              00000007
C2OUT                             00000006
C2POL                             00000004
C2R                               00000002
C2REN                             00000004
C2RSEL                            00000004
C2SYNC                            00000000
CCP1CON                           00000017
CCP1IE                            00000002
CCP1IF                            00000002
CCP1M0                            00000000
CCP1M1                            00000001
CCP1M2                            00000002
CCP1M3                            00000003
CCP1X                             00000005
CCP1Y                             00000004
CCP2CON                           0000001D
CCP2IE                            00000000
CCP2IF                            00000000
CCP2M0                            00000000
CCP2M1                            00000001
CCP2M2                            00000002
CCP2M3                            00000003
CCP2X                             00000005
CCP2Y                             00000004
CCPR1                             00000015
CCPR1H                            00000016
CCPR1L                            00000015
CCPR2                             0000001B
CCPR2H                            0000001C
CCPR2L                            0000001B
CELSIUS                           00000073
CHS0                              00000002
CHS1                              00000003
MPASM 5.83                       TPFINAL.ASM   6-11-2019  10:39:32         PAGE 10


SYMBOL TABLE
  LABEL                             VALUE 

CHS2                              00000004
CHS3                              00000005
CKE                               00000006
CKP                               00000004
CM1CON0                           00000107
CM2CON0                           00000108
CM2CON1                           00000109
CONTADOR0                         00000076
CONTADOR1                         00000077
CREN                              00000004
CSRC                              00000007
D                                 00000005
DATA_ADDRESS                      00000005
DC                                00000001
DC1B0                             00000004
DC1B1                             00000005
DC2B0                             00000004
DC2B1                             00000005
DECENA                            00000070
DELAY                             000000C4
DLAY                              00000079
D_A                               00000005
D_NOT_A                           00000005
ECCPAS                            0000009C
ECCPAS0                           00000004
ECCPAS1                           00000005
ECCPAS2                           00000006
ECCPASE                           00000007
EEADR                             0000010D
EEADRH                            0000010F
EECON1                            0000018C
EECON2                            0000018D
EEDAT                             0000010C
EEDATA                            0000010C
EEDATH                            0000010E
EEIE                              00000004
EEIF                              00000004
EEPGD                             00000007
ENVIAR                            000000D4
F                                 00000001
FERR                              00000002
FSR                               00000004
FVREN                             00000000
GCEN                              00000007
GIE                               00000007
GO                                00000001
GO_DONE                           00000001
GO_NOT_DONE                       00000001
GRADOS                            00000072
HTS                               00000002
I2C_DATA                          00000005
I2C_READ                          00000002
I2C_START                         00000003
MPASM 5.83                       TPFINAL.ASM   6-11-2019  10:39:32         PAGE 11


SYMBOL TABLE
  LABEL                             VALUE 

I2C_STOP                          00000004
INDF                              00000000
INICIO                            00000005
INTCON                            0000000B
INTE                              00000004
INTEDG                            00000006
INTF                              00000001
IOCB                              00000096
IOCB0                             00000000
IOCB1                             00000001
IOCB2                             00000002
IOCB3                             00000003
IOCB4                             00000004
IOCB5                             00000005
IOCB6                             00000006
IOCB7                             00000007
IRCF0                             00000004
IRCF1                             00000005
IRCF2                             00000006
IRP                               00000007
IRS                               00000049
LTS                               00000001
MC1OUT                            00000007
MC2OUT                            00000006
MOSTRAR                           00000094
MOVDECENA                         000000AD
MOVGRADO                          000000A3
MOVLETRA                          0000009E
MOVUNIDAD                         000000A8
MSK                               00000093
MSK0                              00000000
MSK1                              00000001
MSK2                              00000002
MSK3                              00000003
MSK4                              00000004
MSK5                              00000005
MSK6                              00000006
MSK7                              00000007
MUX                               00000078
NOT_A                             00000005
NOT_ADDRESS                       00000005
NOT_BO                            00000000
NOT_BOR                           00000000
NOT_DONE                          00000001
NOT_PD                            00000003
NOT_POR                           00000001
NOT_RBPU                          00000007
NOT_RC8                           00000006
NOT_T1SYNC                        00000002
NOT_TO                            00000004
NOT_TX8                           00000006
NOT_W                             00000002
NOT_WRITE                         00000002
MPASM 5.83                       TPFINAL.ASM   6-11-2019  10:39:32         PAGE 12


SYMBOL TABLE
  LABEL                             VALUE 

NUM_DEC                           0000007A
NUM_UNI                           0000007B
OBTENER_DECENA                    00000074
OBTENER_UNIDAD                    00000081
OERR                              00000001
OPTION_REG                        00000081
OSCCON                            0000008F
OSCTUNE                           00000090
OSFIE                             00000007
OSFIF                             00000007
OSTS                              00000003
P                                 00000004
P1M0                              00000006
P1M1                              00000007
PCL                               00000002
PCLATH                            0000000A
PCON                              0000008E
PDC0                              00000000
PDC1                              00000001
PDC2                              00000002
PDC3                              00000003
PDC4                              00000004
PDC5                              00000005
PDC6                              00000006
PEIE                              00000006
PEN                               00000002
PIE1                              0000008C
PIE2                              0000008D
PIR1                              0000000C
PIR2                              0000000D
PORTA                             00000005
PORTB                             00000006
PORTC                             00000007
PORTD                             00000008
PORTE                             00000009
PR2                               00000092
PRSEN                             00000007
PS0                               00000000
PS1                               00000001
PS2                               00000002
PSA                               00000003
PSSAC0                            00000002
PSSAC1                            00000003
PSSBD0                            00000000
PSSBD1                            00000001
PSTRCON                           0000009D
PULSR                             00000002
PULSS                             00000003
PWM1CON                           0000009B
R                                 00000002
RA0                               00000000
RA1                               00000001
RA2                               00000002
MPASM 5.83                       TPFINAL.ASM   6-11-2019  10:39:32         PAGE 13


SYMBOL TABLE
  LABEL                             VALUE 

RA3                               00000003
RA4                               00000004
RA5                               00000005
RA6                               00000006
RA7                               00000007
RB0                               00000000
RB0SR                             00000055
RB1                               00000001
RB2                               00000002
RB3                               00000003
RB4                               00000004
RB5                               00000005
RB6                               00000006
RB7                               00000007
RBIE                              00000003
RBIF                              00000000
RC0                               00000000
RC1                               00000001
RC2                               00000002
RC3                               00000003
RC4                               00000004
RC5                               00000005
RC6                               00000006
RC7                               00000007
RC8_9                             00000006
RC9                               00000006
RCD8                              00000000
RCEN                              00000003
RCIDL                             00000006
RCIE                              00000005
RCIF                              00000005
RCREG                             0000001A
RCSTA                             00000018
RD                                00000000
RD0                               00000000
RD1                               00000001
RD2                               00000002
RD3                               00000003
RD4                               00000004
RD5                               00000005
RD6                               00000006
RD7                               00000007
RE0                               00000000
RE1                               00000001
RE2                               00000002
RE3                               00000003
READ_WRITE                        00000002
RP0                               00000005
RP1                               00000006
RSEN                              00000001
RX9                               00000006
RX9D                              00000000
R_NOT_W                           00000002
MPASM 5.83                       TPFINAL.ASM   6-11-2019  10:39:32         PAGE 14


SYMBOL TABLE
  LABEL                             VALUE 

R_W                               00000002
S                                 00000003
SALIR                             000000BF
SBOREN                            00000004
SCKP                              00000004
SCS                               00000000
SEN                               00000000
SENDB                             00000003
SMP                               00000007
SPBRG                             00000099
SPBRGH                            0000009A
SPEN                              00000007
SR0                               00000006
SR1                               00000007
SRCON                             00000185
SREN                              00000005
SSPADD                            00000093
SSPBUF                            00000013
SSPCON                            00000014
SSPCON2                           00000091
SSPEN                             00000005
SSPIE                             00000003
SSPIF                             00000003
SSPM0                             00000000
SSPM1                             00000001
SSPM2                             00000002
SSPM3                             00000003
SSPMSK                            00000093
SSPOV                             00000006
SSPSTAT                           00000094
STATUS                            00000003
STATUSA                           00000075
STRA                              00000000
STRB                              00000001
STRC                              00000002
STRD                              00000003
STRSYNC                           00000004
SWDTEN                            00000000
SYNC                              00000004
T0CS                              00000005
T0IE                              00000005
T0IF                              00000002
T0SE                              00000004
T1CKPS0                           00000004
T1CKPS1                           00000005
T1CON                             00000010
T1GINV                            00000007
T1GIV                             00000007
T1GSS                             00000001
T1INSYNC                          00000002
T1OSCEN                           00000003
T1SYNC                            00000002
T2CKPS0                           00000000
MPASM 5.83                       TPFINAL.ASM   6-11-2019  10:39:32         PAGE 15


SYMBOL TABLE
  LABEL                             VALUE 

T2CKPS1                           00000001
T2CON                             00000012
TABLA                             000000C9
TMR0                              00000001
TMR0IE                            00000005
TMR0IF                            00000002
TMR0SR                            0000008E
TMR1                              0000000E
TMR1CS                            00000001
TMR1GE                            00000006
TMR1H                             0000000F
TMR1IE                            00000000
TMR1IF                            00000000
TMR1L                             0000000E
TMR1ON                            00000000
TMR1SR                            000000B4
TMR2                              00000011
TMR2IE                            00000001
TMR2IF                            00000001
TMR2ON                            00000002
TOUTPS0                           00000003
TOUTPS1                           00000004
TOUTPS2                           00000005
TOUTPS3                           00000006
TRISA                             00000085
TRISA0                            00000000
TRISA1                            00000001
TRISA2                            00000002
TRISA3                            00000003
TRISA4                            00000004
TRISA5                            00000005
TRISA6                            00000006
TRISA7                            00000007
TRISB                             00000086
TRISB0                            00000000
TRISB1                            00000001
TRISB2                            00000002
TRISB3                            00000003
TRISB4                            00000004
TRISB5                            00000005
TRISB6                            00000006
TRISB7                            00000007
TRISC                             00000087
TRISC0                            00000000
TRISC1                            00000001
TRISC2                            00000002
TRISC3                            00000003
TRISC4                            00000004
TRISC5                            00000005
TRISC6                            00000006
TRISC7                            00000007
TRISD                             00000088
TRISD0                            00000000
MPASM 5.83                       TPFINAL.ASM   6-11-2019  10:39:32         PAGE 16


SYMBOL TABLE
  LABEL                             VALUE 

TRISD1                            00000001
TRISD2                            00000002
TRISD3                            00000003
TRISD4                            00000004
TRISD5                            00000005
TRISD6                            00000006
TRISD7                            00000007
TRISE                             00000089
TRISE0                            00000000
TRISE1                            00000001
TRISE2                            00000002
TRISE3                            00000003
TRMT                              00000001
TUN0                              00000000
TUN1                              00000001
TUN2                              00000002
TUN3                              00000003
TUN4                              00000004
TX8_9                             00000006
TX9                               00000006
TX9D                              00000000
TXD8                              00000000
TXEN                              00000005
TXIE                              00000004
TXIF                              00000004
TXREG                             00000019
TXSTA                             00000098
UA                                00000001
ULPWUE                            00000005
ULPWUIE                           00000002
ULPWUIF                           00000002
UNIDAD                            00000071
VCFG0                             00000004
VCFG1                             00000005
VR0                               00000000
VR1                               00000001
VR2                               00000002
VR3                               00000003
VRCON                             00000097
VREN                              00000007
VROE                              00000006
VRR                               00000005
VRSS                              00000004
W                                 00000000
WA                                00000074
WCOL                              00000007
WDTCON                            00000105
WDTPS0                            00000001
WDTPS1                            00000002
WDTPS2                            00000003
WDTPS3                            00000004
WPUB                              00000095
WPUB0                             00000000
MPASM 5.83                       TPFINAL.ASM   6-11-2019  10:39:32         PAGE 17


SYMBOL TABLE
  LABEL                             VALUE 

WPUB1                             00000001
WPUB2                             00000002
WPUB3                             00000003
WPUB4                             00000004
WPUB5                             00000005
WPUB6                             00000006
WPUB7                             00000007
WR                                00000001
WREN                              00000002
WRERR                             00000003
WUE                               00000001
Z                                 00000002
_.org_1_0048                      00000048
_.org_1_00C7                      000000C7
_BOR21V                           00003EFF
_BOR40V                           00003FFF
_BOR4V_BOR21V                     00003EFF
_BOR4V_BOR40V                     00003FFF
_BOREN_NSLEEP                     00003EFF
_BOREN_OFF                        00003CFF
_BOREN_ON                         00003FFF
_BOREN_SBODEN                     00003DFF
_BOR_NSLEEP                       00003EFF
_BOR_OFF                          00003CFF
_BOR_ON                           00003FFF
_BOR_SBODEN                       00003DFF
_CONFIG1                          00002007
_CONFIG2                          00002008
_CPD_OFF                          00003FFF
_CPD_ON                           00003F7F
_CP_OFF                           00003FFF
_CP_ON                            00003FBF
_DEBUG_OFF                        00003FFF
_DEBUG_ON                         00001FFF
_DEVID1                           00002006
_EC_OSC                           00003FFB
_EXTRC                            00003FFF
_EXTRCIO                          00003FFE
_EXTRC_OSC_CLKOUT                 00003FFF
_EXTRC_OSC_NOCLKOUT               00003FFE
_FCMEN_OFF                        000037FF
_FCMEN_ON                         00003FFF
_FOSC_EC                          00003FFB
_FOSC_EXTRC_CLKOUT                00003FFF
_FOSC_EXTRC_NOCLKOUT              00003FFE
_FOSC_HS                          00003FFA
_FOSC_INTRC_CLKOUT                00003FFD
_FOSC_INTRC_NOCLKOUT              00003FFC
_FOSC_LP                          00003FF8
_FOSC_XT                          00003FF9
_HS_OSC                           00003FFA
_IDLOC0                           00002000
_IDLOC1                           00002001
MPASM 5.83                       TPFINAL.ASM   6-11-2019  10:39:32         PAGE 18


SYMBOL TABLE
  LABEL                             VALUE 

_IDLOC2                           00002002
_IDLOC3                           00002003
_IESO_OFF                         00003BFF
_IESO_ON                          00003FFF
_INTOSC                           00003FFD
_INTOSCIO                         00003FFC
_INTRC_OSC_CLKOUT                 00003FFD
_INTRC_OSC_NOCLKOUT               00003FFC
_LP_OSC                           00003FF8
_LVP_OFF                          00002FFF
_LVP_ON                           00003FFF
_MCLRE_OFF                        00003FDF
_MCLRE_ON                         00003FFF
_PWRTE_OFF                        00003FFF
_PWRTE_ON                         00003FEF
_WDTE_OFF                         00003FF7
_WDTE_ON                          00003FFF
_WDT_OFF                          00003FF7
_WDT_ON                           00003FFF
_WRT_1FOURTH                      00003BFF
_WRT_256                          00003DFF
_WRT_HALF                         000039FF
_WRT_OFF                          00003FFF
_XT_OSC                           00003FF9
__16F887                          00000001
restar                            00000076
restarU                           00000083

Errors   :     0
Warnings :     1 reported,     0 suppressed
Messages :    19 reported,     0 suppressed

